target datalayout = "e-m:e-p270:32:32-p271:32:32-p272:64:64-i64:64-i128:128-f80:128-n8:16:32:64-S128"
target triple = "x86_64-pc-linux-gnu"

%struct.CRYPTO_REF_COUNT = type { i32 }
%struct.cert_st = type { ptr, ptr, ptr, i32, i32, ptr, i64, ptr, i64, ptr, i64, ptr, i64, ptr, ptr, ptr, ptr, %struct.custom_ext_methods, ptr, i32, ptr, ptr, %struct.CRYPTO_REF_COUNT }
%struct.custom_ext_methods = type { ptr, i64 }
%struct.sig_cb_st = type { i64, [62 x i16], ptr }

@.str.2 = private unnamed_addr constant [24 x i8] c"../openssl/ssl/t1_lib.c\00", align 1
@__func__.tls1_set_sigalgs_list = private unnamed_addr constant [22 x i8] c"tls1_set_sigalgs_list\00", align 1
@.str.12 = private unnamed_addr constant [38 x i8] c"No valid signature algorithms in '%s'\00", align 1

; Function Attrs: nounwind uwtable
define i32 @tls1_set_raw_sigalgs(ptr noundef %0, ptr noundef %1, i64 noundef %2, i32 noundef %3) #1 {
  %5 = alloca i32, align 4
  %6 = alloca ptr, align 8
  %7 = alloca ptr, align 8
  %8 = alloca i64, align 8
  %9 = alloca i32, align 4
  %10 = alloca ptr, align 8
  %11 = alloca i32, align 4
  store ptr %0, ptr %6, align 8, !tbaa !323
  store ptr %1, ptr %7, align 8, !tbaa !142
  store i64 %2, ptr %8, align 8, !tbaa !3
  store i32 %3, ptr %9, align 4, !tbaa !128
  call void @llvm.lifetime.start.p0(i64 8, ptr %10) #8
  %12 = load i64, ptr %8, align 8, !tbaa !3
  %13 = mul i64 %12, 2
  %14 = call noalias ptr @CRYPTO_malloc(i64 noundef %13, ptr noundef @.str.2, i32 noundef 3708)
  store ptr %14, ptr %10, align 8, !tbaa !142
  %15 = icmp eq ptr %14, null
  br i1 %15, label %16, label %17

16:                                               ; preds = %4
  store i32 0, ptr %5, align 4
  store i32 1, ptr %11, align 4
  br label %45

17:                                               ; preds = %4
  %18 = load ptr, ptr %10, align 8, !tbaa !142
  %19 = load ptr, ptr %7, align 8, !tbaa !142
  %20 = load i64, ptr %8, align 8, !tbaa !3
  %21 = mul i64 %20, 2
  call void @llvm.memcpy.p0.p0.i64(ptr align 2 %18, ptr align 2 %19, i64 %21, i1 false)
  %22 = load i32, ptr %9, align 4, !tbaa !128
  %23 = icmp ne i32 %22, 0
  br i1 %23, label %24, label %34

24:                                               ; preds = %17
  %25 = load ptr, ptr %6, align 8, !tbaa !323
  %26 = getelementptr inbounds nuw %struct.cert_st, ptr %25, i32 0, i32 11
  %27 = load ptr, ptr %26, align 8, !tbaa !240
  call void @CRYPTO_free(ptr noundef %27, ptr noundef @.str.2, i32 noundef 3713)
  %28 = load ptr, ptr %10, align 8, !tbaa !142
  %29 = load ptr, ptr %6, align 8, !tbaa !323
  %30 = getelementptr inbounds nuw %struct.cert_st, ptr %29, i32 0, i32 11
  store ptr %28, ptr %30, align 8, !tbaa !240
  %31 = load i64, ptr %8, align 8, !tbaa !3
  %32 = load ptr, ptr %6, align 8, !tbaa !323
  %33 = getelementptr inbounds nuw %struct.cert_st, ptr %32, i32 0, i32 12
  store i64 %31, ptr %33, align 8, !tbaa !241
  br label %44

34:                                               ; preds = %17
  %35 = load ptr, ptr %6, align 8, !tbaa !323
  %36 = getelementptr inbounds nuw %struct.cert_st, ptr %35, i32 0, i32 9
  %37 = load ptr, ptr %36, align 8, !tbaa !242
  call void @CRYPTO_free(ptr noundef %37, ptr noundef @.str.2, i32 noundef 3717)
  %38 = load ptr, ptr %10, align 8, !tbaa !142
  %39 = load ptr, ptr %6, align 8, !tbaa !323
  %40 = getelementptr inbounds nuw %struct.cert_st, ptr %39, i32 0, i32 9
  store ptr %38, ptr %40, align 8, !tbaa !242
  %41 = load i64, ptr %8, align 8, !tbaa !3
  %42 = load ptr, ptr %6, align 8, !tbaa !323
  %43 = getelementptr inbounds nuw %struct.cert_st, ptr %42, i32 0, i32 10
  store i64 %41, ptr %43, align 8, !tbaa !243
  br label %44

44:                                               ; preds = %34, %24
  store i32 1, ptr %5, align 4
  store i32 1, ptr %11, align 4
  br label %45

45:                                               ; preds = %44, %16
  call void @llvm.lifetime.end.p0(i64 8, ptr %10) #8
  %46 = load i32, ptr %5, align 4
  ret i32 %46
}

; Function Attrs: nounwind uwtable
define i32 @tls1_set_sigalgs_list(ptr noundef %0, ptr noundef %1, ptr noundef %2, i32 noundef %3) #1 {
  %5 = alloca i32, align 4
  %6 = alloca ptr, align 8
  %7 = alloca ptr, align 8
  %8 = alloca ptr, align 8
  %9 = alloca i32, align 4
  %10 = alloca %struct.sig_cb_st, align 8
  %11 = alloca i32, align 4
  store ptr %0, ptr %6, align 8, !tbaa !80
  store ptr %1, ptr %7, align 8, !tbaa !323
  store ptr %2, ptr %8, align 8, !tbaa !172
  store i32 %3, ptr %9, align 4, !tbaa !128
  call void @llvm.lifetime.start.p0(i64 144, ptr %10) #8
  %12 = getelementptr inbounds nuw %struct.sig_cb_st, ptr %10, i32 0, i32 0
  store i64 0, ptr %12, align 8, !tbaa !325
  %13 = load ptr, ptr %6, align 8, !tbaa !80
  %14 = icmp ne ptr %13, null
  br i1 %14, label %15, label %18

15:                                               ; preds = %4
  %16 = load ptr, ptr %6, align 8, !tbaa !80
  %17 = getelementptr inbounds nuw %struct.sig_cb_st, ptr %10, i32 0, i32 2
  store ptr %16, ptr %17, align 8, !tbaa !327
  br label %18

18:                                               ; preds = %15, %4
  %19 = load ptr, ptr %8, align 8, !tbaa !172
  %20 = call i32 @CONF_parse_list(ptr noundef %19, i32 noundef 58, i32 noundef 1, ptr noundef @sig_cb, ptr noundef %10)
  %21 = icmp ne i32 %20, 0
  br i1 %21, label %23, label %22

22:                                               ; preds = %18
  store i32 0, ptr %5, align 4
  store i32 1, ptr %11, align 4
  br label %41

23:                                               ; preds = %18
  %24 = getelementptr inbounds nuw %struct.sig_cb_st, ptr %10, i32 0, i32 0
  %25 = load i64, ptr %24, align 8, !tbaa !325
  %26 = icmp eq i64 %25, 0
  br i1 %26, label %27, label %29

27:                                               ; preds = %23
  call void @ERR_new()
  call void @ERR_set_debug(ptr noundef @.str.2, i32 noundef 3694, ptr noundef @__func__.tls1_set_sigalgs_list)
  %28 = load ptr, ptr %8, align 8, !tbaa !172
  call void (i32, i32, ptr, ...) @ERR_set_error(i32 noundef 20, i32 noundef 524550, ptr noundef @.str.12, ptr noundef %28)
  store i32 0, ptr %5, align 4
  store i32 1, ptr %11, align 4
  br label %41

29:                                               ; preds = %23
  %30 = load ptr, ptr %7, align 8, !tbaa !323
  %31 = icmp eq ptr %30, null
  br i1 %31, label %32, label %33

32:                                               ; preds = %29
  store i32 1, ptr %5, align 4
  store i32 1, ptr %11, align 4
  br label %41

33:                                               ; preds = %29
  %34 = load ptr, ptr %7, align 8, !tbaa !323
  %35 = getelementptr inbounds nuw %struct.sig_cb_st, ptr %10, i32 0, i32 1
  %36 = getelementptr inbounds [62 x i16], ptr %35, i64 0, i64 0
  %37 = getelementptr inbounds nuw %struct.sig_cb_st, ptr %10, i32 0, i32 0
  %38 = load i64, ptr %37, align 8, !tbaa !325
  %39 = load i32, ptr %9, align 4, !tbaa !128
  %40 = call i32 @tls1_set_raw_sigalgs(ptr noundef %34, ptr noundef %36, i64 noundef %38, i32 noundef %39)
  store i32 %40, ptr %5, align 4
  store i32 1, ptr %11, align 4
  br label %41

41:                                               ; preds = %33, %32, %27, %22
  call void @llvm.lifetime.end.p0(i64 144, ptr %10) #8
  %42 = load i32, ptr %5, align 4
  ret i32 %42
}