; Function Attrs: nounwind uwtable
define range(i32 0, 2) i32 @tls1_set_sigalgs_list(ptr noundef %0, ptr noundef captures(address_is_null) %1, ptr noundef %2, i32 noundef %3) local_unnamed_addr #2 {
  %5 = alloca %struct.sig_cb_st, align 8
  call void @llvm.lifetime.start.p0(i64 144, ptr nonnull %5) #14
  store i64 0, ptr %5, align 8, !tbaa !272
  %.not = icmp eq ptr %0, null
  br i1 %.not, label %8, label %6

6:                                                ; preds = %4
  %7 = getelementptr inbounds nuw i8, ptr %5, i64 136
  store ptr %0, ptr %7, align 8, !tbaa !274
  br label %8

8:                                                ; preds = %6, %4
  %9 = call i32 @CONF_parse_list(ptr noundef %2, i32 noundef 58, i32 noundef 1, ptr noundef nonnull @sig_cb, ptr noundef nonnull %5) #14
  %.not10 = icmp eq i32 %9, 0
  br i1 %.not10, label %tls1_set_raw_sigalgs.exit, label %10

10:                                               ; preds = %8
  %11 = load i64, ptr %5, align 8, !tbaa !272
  %12 = icmp eq i64 %11, 0
  br i1 %12, label %13, label %14

13:                                               ; preds = %10
  call void @ERR_new() #14
  call void @ERR_set_debug(ptr noundef nonnull @.str.2, i32 noundef 3694, ptr noundef nonnull @__func__.tls1_set_sigalgs_list) #14
  call void (i32, i32, ptr, ...) @ERR_set_error(i32 noundef 20, i32 noundef 524550, ptr noundef nonnull @.str.12, ptr noundef %2) #14
  br label %tls1_set_raw_sigalgs.exit

14:                                               ; preds = %10
  %15 = icmp eq ptr %1, null
  br i1 %15, label %tls1_set_raw_sigalgs.exit, label %16

16:                                               ; preds = %14
  %17 = shl i64 %11, 1
  %18 = call noalias ptr @CRYPTO_malloc(i64 noundef %17, ptr noundef nonnull @.str.2, i32 noundef 3708) #14
  %19 = icmp eq ptr %18, null
  br i1 %19, label %tls1_set_raw_sigalgs.exit, label %.sink.split.i

.sink.split.i:                                    ; preds = %16
  %20 = getelementptr inbounds nuw i8, ptr %5, i64 8
  call void @llvm.memcpy.p0.p0.i64(ptr nonnull align 2 %18, ptr nonnull readonly align 8 %20, i64 %17, i1 false)
  %.not.i = icmp eq i32 %3, 0
  %..i = select i1 %.not.i, i64 64, i64 80
  %.21.i = select i1 %.not.i, i32 3717, i32 3713
  %.22.i = select i1 %.not.i, i64 72, i64 88
  %21 = getelementptr inbounds nuw i8, ptr %1, i64 %..i
  %22 = load ptr, ptr %21, align 8, !tbaa !131
  call void @CRYPTO_free(ptr noundef %22, ptr noundef nonnull @.str.2, i32 noundef %.21.i) #14
  store ptr %18, ptr %21, align 8, !tbaa !131
  %23 = getelementptr inbounds nuw i8, ptr %1, i64 %.22.i
  store i64 %11, ptr %23, align 8, !tbaa !105
  br label %tls1_set_raw_sigalgs.exit

tls1_set_raw_sigalgs.exit:                        ; preds = %.sink.split.i, %16, %14, %8, %13
  %.0 = phi i32 [ 0, %13 ], [ 0, %8 ], [ 1, %14 ], [ 0, %16 ], [ 1, %.sink.split.i ]
  call void @llvm.lifetime.end.p0(i64 144, ptr nonnull %5) #14
  ret i32 %.0
}